target datalayout = "e-m:e-p270:32:32-p271:32:32-p272:64:64-i64:64-i128:128-f80:128-n8:16:32:64-S128"
target triple = "x86_64-pc-linux-gnu"

%struct.stbi_io_callbacks = type { ptr, ptr, ptr }
%struct.stbi__context = type { i32, i32, i32, i32, %struct.stbi_io_callbacks, ptr, i32, i32, [128 x i8], i32, ptr, ptr, ptr, ptr }

; Function Attrs: mustprogress uwtable
define internal void @_ZL10stbi__skipP13stbi__contexti(ptr noundef %0, i32 noundef %1) #3 {
  %3 = alloca ptr, align 8
  %4 = alloca i32, align 4
  %5 = alloca i32, align 4
  %6 = alloca i32, align 4
  store ptr %0, ptr %3, align 8, !tbaa !9
  store i32 %1, ptr %4, align 4, !tbaa !10
  %7 = load i32, ptr %4, align 4, !tbaa !10
  %8 = icmp eq i32 %7, 0
  br i1 %8, label %9, label %10

9:                                                ; preds = %2
  br label %66

10:                                               ; preds = %2
  %11 = load i32, ptr %4, align 4, !tbaa !10
  %12 = icmp slt i32 %11, 0
  br i1 %12, label %13, label %19

13:                                               ; preds = %10
  %14 = load ptr, ptr %3, align 8, !tbaa !9
  %15 = getelementptr inbounds nuw %struct.stbi__context, ptr %14, i32 0, i32 11
  %16 = load ptr, ptr %15, align 8, !tbaa !16
  %17 = load ptr, ptr %3, align 8, !tbaa !9
  %18 = getelementptr inbounds nuw %struct.stbi__context, ptr %17, i32 0, i32 10
  store ptr %16, ptr %18, align 8, !tbaa !19
  br label %66

19:                                               ; preds = %10
  %20 = load ptr, ptr %3, align 8, !tbaa !9
  %21 = getelementptr inbounds nuw %struct.stbi__context, ptr %20, i32 0, i32 4
  %22 = getelementptr inbounds nuw %struct.stbi_io_callbacks, ptr %21, i32 0, i32 0
  %23 = load ptr, ptr %22, align 8, !tbaa !24
  %24 = icmp ne ptr %23, null
  br i1 %24, label %25, label %59

25:                                               ; preds = %19
  call void @llvm.lifetime.start.p0(i64 4, ptr %5) #22
  %26 = load ptr, ptr %3, align 8, !tbaa !9
  %27 = getelementptr inbounds nuw %struct.stbi__context, ptr %26, i32 0, i32 11
  %28 = load ptr, ptr %27, align 8, !tbaa !16
  %29 = load ptr, ptr %3, align 8, !tbaa !9
  %30 = getelementptr inbounds nuw %struct.stbi__context, ptr %29, i32 0, i32 10
  %31 = load ptr, ptr %30, align 8, !tbaa !19
  %32 = ptrtoint ptr %28 to i64
  %33 = ptrtoint ptr %31 to i64
  %34 = sub i64 %32, %33
  %35 = trunc i64 %34 to i32
  store i32 %35, ptr %5, align 4, !tbaa !10
  %36 = load i32, ptr %5, align 4, !tbaa !10
  %37 = load i32, ptr %4, align 4, !tbaa !10
  %38 = icmp slt i32 %36, %37
  br i1 %38, label %39, label %55

39:                                               ; preds = %25
  %40 = load ptr, ptr %3, align 8, !tbaa !9
  %41 = getelementptr inbounds nuw %struct.stbi__context, ptr %40, i32 0, i32 11
  %42 = load ptr, ptr %41, align 8, !tbaa !16
  %43 = load ptr, ptr %3, align 8, !tbaa !9
  %44 = getelementptr inbounds nuw %struct.stbi__context, ptr %43, i32 0, i32 10
  store ptr %42, ptr %44, align 8, !tbaa !19
  %45 = load ptr, ptr %3, align 8, !tbaa !9
  %46 = getelementptr inbounds nuw %struct.stbi__context, ptr %45, i32 0, i32 4
  %47 = getelementptr inbounds nuw %struct.stbi_io_callbacks, ptr %46, i32 0, i32 1
  %48 = load ptr, ptr %47, align 8, !tbaa !119
  %49 = load ptr, ptr %3, align 8, !tbaa !9
  %50 = getelementptr inbounds nuw %struct.stbi__context, ptr %49, i32 0, i32 5
  %51 = load ptr, ptr %50, align 8, !tbaa !30
  %52 = load i32, ptr %4, align 4, !tbaa !10
  %53 = load i32, ptr %5, align 4, !tbaa !10
  %54 = sub nsw i32 %52, %53
  call void %48(ptr noundef %51, i32 noundef %54)
  store i32 1, ptr %6, align 4
  br label %56

55:                                               ; preds = %25
  store i32 0, ptr %6, align 4
  br label %56

56:                                               ; preds = %55, %39
  call void @llvm.lifetime.end.p0(i64 4, ptr %5) #22
  %57 = load i32, ptr %6, align 4
  switch i32 %57, label %67 [
    i32 0, label %58
    i32 1, label %66
  ]

58:                                               ; preds = %56
  br label %59

59:                                               ; preds = %58, %19
  %60 = load i32, ptr %4, align 4, !tbaa !10
  %61 = load ptr, ptr %3, align 8, !tbaa !9
  %62 = getelementptr inbounds nuw %struct.stbi__context, ptr %61, i32 0, i32 10
  %63 = load ptr, ptr %62, align 8, !tbaa !19
  %64 = sext i32 %60 to i64
  %65 = getelementptr inbounds i8, ptr %63, i64 %64
  store ptr %65, ptr %62, align 8, !tbaa !19
  br label %66

66:                                               ; preds = %59, %56, %13, %9
  ret void

67:                                               ; preds = %56
  unreachable
}

; Function Attrs: mustprogress nounwind uwtable
define internal void @_ZL12stbi__rewindP13stbi__context(ptr noundef %0) #0 {
  %2 = alloca ptr, align 8
  store ptr %0, ptr %2, align 8, !tbaa !9
  %3 = load ptr, ptr %2, align 8, !tbaa !9
  %4 = getelementptr inbounds nuw %struct.stbi__context, ptr %3, i32 0, i32 12
  %5 = load ptr, ptr %4, align 8, !tbaa !27
  %6 = load ptr, ptr %2, align 8, !tbaa !9
  %7 = getelementptr inbounds nuw %struct.stbi__context, ptr %6, i32 0, i32 10
  store ptr %5, ptr %7, align 8, !tbaa !19
  %8 = load ptr, ptr %2, align 8, !tbaa !9
  %9 = getelementptr inbounds nuw %struct.stbi__context, ptr %8, i32 0, i32 13
  %10 = load ptr, ptr %9, align 8, !tbaa !28
  %11 = load ptr, ptr %2, align 8, !tbaa !9
  %12 = getelementptr inbounds nuw %struct.stbi__context, ptr %11, i32 0, i32 11
  store ptr %10, ptr %12, align 8, !tbaa !16
  ret void
}

; Function Attrs: mustprogress uwtable
define internal noundef i32 @_ZL13stbi__get32beP13stbi__context(ptr noundef %0) #3 {
  %2 = alloca ptr, align 8
  %3 = alloca i32, align 4
  store ptr %0, ptr %2, align 8, !tbaa !9
  call void @llvm.lifetime.start.p0(i64 4, ptr %3) #22
  %4 = load ptr, ptr %2, align 8, !tbaa !9
  %5 = call noundef i32 @_ZL13stbi__get16beP13stbi__context(ptr noundef %4)
  store i32 %5, ptr %3, align 4, !tbaa !10
  %6 = load i32, ptr %3, align 4, !tbaa !10
  %7 = shl i32 %6, 16
  %8 = load ptr, ptr %2, align 8, !tbaa !9
  %9 = call noundef i32 @_ZL13stbi__get16beP13stbi__context(ptr noundef %8)
  %10 = add i32 %7, %9
  call void @llvm.lifetime.end.p0(i64 4, ptr %3) #22
  ret i32 %10
}

; Function Attrs: mustprogress uwtable
define internal noundef i32 @_ZL14stbi__pnm_is16P13stbi__context(ptr noundef %0) #3 {
  %2 = alloca i32, align 4
  %3 = alloca ptr, align 8
  store ptr %0, ptr %3, align 8, !tbaa !9
  %4 = load ptr, ptr %3, align 8, !tbaa !9
  %5 = call noundef i32 @_ZL14stbi__pnm_infoP13stbi__contextPiS1_S1_(ptr noundef %4, ptr noundef null, ptr noundef null, ptr noundef null)
  %6 = icmp eq i32 %5, 16
  br i1 %6, label %7, label %8

7:                                                ; preds = %1
  store i32 1, ptr %2, align 4
  br label %9

8:                                                ; preds = %1
  store i32 0, ptr %2, align 4
  br label %9

9:                                                ; preds = %8, %7
  %10 = load i32, ptr %2, align 4
  ret i32 %10
}

; Function Attrs: mustprogress uwtable
define internal noundef i32 @_ZL14stbi__psd_is16P13stbi__context(ptr noundef %0) #3 {
  %2 = alloca i32, align 4
  %3 = alloca ptr, align 8
  %4 = alloca i32, align 4
  %5 = alloca i32, align 4
  %6 = alloca i32, align 4
  store ptr %0, ptr %3, align 8, !tbaa !9
  call void @llvm.lifetime.start.p0(i64 4, ptr %4) #22
  call void @llvm.lifetime.start.p0(i64 4, ptr %5) #22
  %7 = load ptr, ptr %3, align 8, !tbaa !9
  %8 = call noundef i32 @_ZL13stbi__get32beP13stbi__context(ptr noundef %7)
  %9 = icmp ne i32 %8, 943870035
  br i1 %9, label %10, label %12

10:                                               ; preds = %1
  %11 = load ptr, ptr %3, align 8, !tbaa !9
  call void @_ZL12stbi__rewindP13stbi__context(ptr noundef %11)
  store i32 0, ptr %2, align 4
  store i32 1, ptr %6, align 4
  br label %37

12:                                               ; preds = %1
  %13 = load ptr, ptr %3, align 8, !tbaa !9
  %14 = call noundef i32 @_ZL13stbi__get16beP13stbi__context(ptr noundef %13)
  %15 = icmp ne i32 %14, 1
  br i1 %15, label %16, label %18

16:                                               ; preds = %12
  %17 = load ptr, ptr %3, align 8, !tbaa !9
  call void @_ZL12stbi__rewindP13stbi__context(ptr noundef %17)
  store i32 0, ptr %2, align 4
  store i32 1, ptr %6, align 4
  br label %37

18:                                               ; preds = %12
  %19 = load ptr, ptr %3, align 8, !tbaa !9
  call void @_ZL10stbi__skipP13stbi__contexti(ptr noundef %19, i32 noundef 6)
  %20 = load ptr, ptr %3, align 8, !tbaa !9
  %21 = call noundef i32 @_ZL13stbi__get16beP13stbi__context(ptr noundef %20)
  store i32 %21, ptr %4, align 4, !tbaa !10
  %22 = load i32, ptr %4, align 4, !tbaa !10
  %23 = icmp slt i32 %22, 0
  br i1 %23, label %27, label %24

24:                                               ; preds = %18
  %25 = load i32, ptr %4, align 4, !tbaa !10
  %26 = icmp sgt i32 %25, 16
  br i1 %26, label %27, label %29

27:                                               ; preds = %24, %18
  %28 = load ptr, ptr %3, align 8, !tbaa !9
  call void @_ZL12stbi__rewindP13stbi__context(ptr noundef %28)
  store i32 0, ptr %2, align 4
  store i32 1, ptr %6, align 4
  br label %37

29:                                               ; preds = %24
  %30 = load ptr, ptr %3, align 8, !tbaa !9
  %31 = call noundef i32 @_ZL13stbi__get16beP13stbi__context(ptr noundef %30)
  store i32 %31, ptr %5, align 4, !tbaa !10
  %32 = load i32, ptr %5, align 4, !tbaa !10
  %33 = icmp ne i32 %32, 16
  br i1 %33, label %34, label %36

34:                                               ; preds = %29
  %35 = load ptr, ptr %3, align 8, !tbaa !9
  call void @_ZL12stbi__rewindP13stbi__context(ptr noundef %35)
  store i32 0, ptr %2, align 4
  store i32 1, ptr %6, align 4
  br label %37

36:                                               ; preds = %29
  store i32 1, ptr %2, align 4
  store i32 1, ptr %6, align 4
  br label %37

37:                                               ; preds = %36, %34, %27, %16, %10
  call void @llvm.lifetime.end.p0(i64 4, ptr %5) #22
  call void @llvm.lifetime.end.p0(i64 4, ptr %4) #22
  %38 = load i32, ptr %2, align 4
  ret i32 %38
}

; Function Attrs: mustprogress uwtable
define internal noundef i32 @_ZL16stbi__is_16_mainP13stbi__context(ptr noundef %0) #3 {
  %2 = alloca i32, align 4
  %3 = alloca ptr, align 8
  store ptr %0, ptr %3, align 8, !tbaa !9
  %4 = load ptr, ptr %3, align 8, !tbaa !9
  %5 = call noundef i32 @_ZL14stbi__psd_is16P13stbi__context(ptr noundef %4)
  %6 = icmp ne i32 %5, 0
  br i1 %6, label %7, label %8

7:                                                ; preds = %1
  store i32 1, ptr %2, align 4
  br label %14

8:                                                ; preds = %1
  %9 = load ptr, ptr %3, align 8, !tbaa !9
  %10 = call noundef i32 @_ZL14stbi__pnm_is16P13stbi__context(ptr noundef %9)
  %11 = icmp ne i32 %10, 0
  br i1 %11, label %12, label %13

12:                                               ; preds = %8
  store i32 1, ptr %2, align 4
  br label %14

13:                                               ; preds = %8
  store i32 0, ptr %2, align 4
  br label %14

14:                                               ; preds = %13, %12, %7
  %15 = load i32, ptr %2, align 4
  ret i32 %15
}