; Function Attrs: mustprogress uwtable
define internal fastcc noundef range(i32 0, 2) i32 @_ZL16stbi__is_16_mainP13stbi__context(ptr noundef nonnull %0) unnamed_addr #5 {
  %2 = tail call fastcc noundef i32 @_ZL13stbi__get16beP13stbi__context(ptr noundef nonnull %0)
  %3 = shl nuw i32 %2, 16
  %4 = tail call fastcc noundef i32 @_ZL13stbi__get16beP13stbi__context(ptr noundef nonnull %0)
  %5 = or disjoint i32 %3, %4
  %.not.i = icmp eq i32 %5, 943870035
  br i1 %.not.i, label %6, label %34

6:                                                ; preds = %1
  %7 = tail call fastcc noundef i32 @_ZL13stbi__get16beP13stbi__context(ptr noundef nonnull %0)
  %.not13.i = icmp eq i32 %7, 1
  br i1 %.not13.i, label %8, label %34

8:                                                ; preds = %6
  %9 = getelementptr inbounds nuw i8, ptr %0, i64 16
  %10 = load ptr, ptr %9, align 8, !tbaa !21
  %.not.i.i = icmp eq ptr %10, null
  br i1 %.not.i.i, label %..thread_crit_edge.i.i, label %11

..thread_crit_edge.i.i:                           ; preds = %8
  %.phi.trans.insert.i.i = getelementptr inbounds nuw i8, ptr %0, i64 192
  %.pre.i.i = load ptr, ptr %.phi.trans.insert.i.i, align 8, !tbaa !20
  br label %.thread.i.i

11:                                               ; preds = %8
  %12 = getelementptr inbounds nuw i8, ptr %0, i64 200
  %13 = load ptr, ptr %12, align 8, !tbaa !23
  %14 = getelementptr inbounds nuw i8, ptr %0, i64 192
  %15 = load ptr, ptr %14, align 8, !tbaa !20
  %16 = ptrtoint ptr %13 to i64
  %17 = ptrtoint ptr %15 to i64
  %18 = sub i64 %16, %17
  %19 = trunc i64 %18 to i32
  %20 = icmp slt i32 %19, 6
  br i1 %20, label %21, label %.thread.i.i

21:                                               ; preds = %11
  store ptr %13, ptr %14, align 8, !tbaa !20
  %22 = getelementptr inbounds nuw i8, ptr %0, i64 24
  %23 = load ptr, ptr %22, align 8, !tbaa !58
  %24 = getelementptr inbounds nuw i8, ptr %0, i64 40
  %25 = load ptr, ptr %24, align 8, !tbaa !13
  %26 = sub nsw i32 6, %19
  tail call void %23(ptr noundef %25, i32 noundef %26)
  br label %_ZL10stbi__skipP13stbi__contexti.exit.i

.thread.i.i:                                      ; preds = %11, %..thread_crit_edge.i.i
  %27 = phi ptr [ %.pre.i.i, %..thread_crit_edge.i.i ], [ %15, %11 ]
  %28 = getelementptr inbounds nuw i8, ptr %0, i64 192
  %29 = getelementptr inbounds nuw i8, ptr %27, i64 6
  store ptr %29, ptr %28, align 8, !tbaa !20
  br label %_ZL10stbi__skipP13stbi__contexti.exit.i

_ZL10stbi__skipP13stbi__contexti.exit.i:          ; preds = %.thread.i.i, %21
  %30 = tail call fastcc noundef i32 @_ZL13stbi__get16beP13stbi__context(ptr noundef nonnull %0)
  %31 = icmp samesign ugt i32 %30, 16
  br i1 %31, label %34, label %32

32:                                               ; preds = %_ZL10stbi__skipP13stbi__contexti.exit.i
  %33 = tail call fastcc noundef i32 @_ZL13stbi__get16beP13stbi__context(ptr noundef nonnull %0)
  %.not14.i = icmp eq i32 %33, 16
  br i1 %.not14.i, label %_ZL14stbi__psd_is16P13stbi__context.exit, label %34

34:                                               ; preds = %1, %6, %_ZL10stbi__skipP13stbi__contexti.exit.i, %32
  %35 = getelementptr inbounds nuw i8, ptr %0, i64 208
  %36 = load ptr, ptr %35, align 8, !tbaa !19
  %37 = getelementptr inbounds nuw i8, ptr %0, i64 192
  store ptr %36, ptr %37, align 8, !tbaa !20
  %38 = getelementptr inbounds nuw i8, ptr %0, i64 216
  %39 = load ptr, ptr %38, align 8, !tbaa !24
  %40 = getelementptr inbounds nuw i8, ptr %0, i64 200
  store ptr %39, ptr %40, align 8, !tbaa !23
  %41 = tail call fastcc noundef i32 @_ZL14stbi__pnm_infoP13stbi__contextPiS1_S1_(ptr noundef nonnull %0, ptr noundef null, ptr noundef null, ptr noundef null)
  %.not = icmp eq i32 %41, 16
  %. = zext i1 %.not to i32
  br label %_ZL14stbi__psd_is16P13stbi__context.exit

_ZL14stbi__psd_is16P13stbi__context.exit:         ; preds = %32, %34
  %.0 = phi i32 [ %., %34 ], [ 1, %32 ]
  ret i32 %.0
}